target datalayout = "e-m:e-p270:32:32-p271:32:32-p272:64:64-i64:64-i128:128-f80:128-n8:16:32:64-S128"
target triple = "x86_64-pc-linux-gnu"

%struct.IBBDPrecDataRec = type { i64, i64, i64, i64, double, ptr, ptr, ptr, ptr, ptr, i64, i64, i64, i64, ptr }

; Function Attrs: nounwind uwtable
define internal i32 @IDABBDPrecSolve(double noundef %0, ptr noundef %1, ptr noundef %2, ptr noundef %3, ptr noundef %4, ptr noundef %5, double noundef %6, double noundef %7, ptr noundef %8, ptr noundef %9) #0 {
  %11 = alloca double, align 8
  %12 = alloca ptr, align 8
  %13 = alloca ptr, align 8
  %14 = alloca ptr, align 8
  %15 = alloca ptr, align 8
  %16 = alloca ptr, align 8
  %17 = alloca double, align 8
  %18 = alloca double, align 8
  %19 = alloca ptr, align 8
  %20 = alloca ptr, align 8
  %21 = alloca ptr, align 8
  %22 = alloca ptr, align 8
  store double %0, ptr %11, align 8, !tbaa !9
  store ptr %1, ptr %12, align 8, !tbaa !44
  store ptr %2, ptr %13, align 8, !tbaa !44
  store ptr %3, ptr %14, align 8, !tbaa !44
  store ptr %4, ptr %15, align 8, !tbaa !44
  store ptr %5, ptr %16, align 8, !tbaa !44
  store double %6, ptr %17, align 8, !tbaa !9
  store double %7, ptr %18, align 8, !tbaa !9
  store ptr %8, ptr %19, align 8, !tbaa !3
  store ptr %9, ptr %20, align 8, !tbaa !44
  call void @llvm.lifetime.start.p0(i64 8, ptr %21) #6
  call void @llvm.lifetime.start.p0(i64 8, ptr %22) #6
  %23 = load ptr, ptr %19, align 8, !tbaa !3
  store ptr %23, ptr %21, align 8, !tbaa !30
  %24 = load ptr, ptr %15, align 8, !tbaa !44
  %25 = load ptr, ptr %16, align 8, !tbaa !44
  call void @N_VScale(double noundef 1.000000e+00, ptr noundef %24, ptr noundef %25)
  %26 = load ptr, ptr %16, align 8, !tbaa !44
  %27 = call ptr @N_VGetArrayPointer(ptr noundef %26)
  store ptr %27, ptr %22, align 8, !tbaa !56
  %28 = load ptr, ptr %21, align 8, !tbaa !30
  %29 = getelementptr inbounds nuw %struct.IBBDPrecDataRec, ptr %28, i32 0, i32 8
  %30 = load ptr, ptr %29, align 8, !tbaa !42
  %31 = load ptr, ptr %21, align 8, !tbaa !30
  %32 = getelementptr inbounds nuw %struct.IBBDPrecDataRec, ptr %31, i32 0, i32 9
  %33 = load ptr, ptr %32, align 8, !tbaa !43
  %34 = load ptr, ptr %22, align 8, !tbaa !56
  call void @BandGBTRS(ptr noundef %30, ptr noundef %33, ptr noundef %34)
  call void @llvm.lifetime.end.p0(i64 8, ptr %22) #6
  call void @llvm.lifetime.end.p0(i64 8, ptr %21) #6
  ret i32 0
}