; Function Attrs: nounwind uwtable
define internal noundef i32 @IDABBDPrecSolve(double %0, ptr readnone captures(none) %1, ptr readnone captures(none) %2, ptr readnone captures(none) %3, ptr noundef %4, ptr noundef %5, double %6, double %7, ptr noundef readonly captures(none) %8, ptr readnone captures(none) %9) #0 {
  tail call void @N_VScale(double noundef 1.000000e+00, ptr noundef %4, ptr noundef %5) #7
  %11 = tail call ptr @N_VGetArrayPointer(ptr noundef %5) #7
  %12 = getelementptr inbounds nuw i8, ptr %8, i64 64
  %13 = load ptr, ptr %12, align 8, !tbaa !33
  %14 = getelementptr inbounds nuw i8, ptr %8, i64 72
  %15 = load ptr, ptr %14, align 8, !tbaa !34
  tail call void @BandGBTRS(ptr noundef %13, ptr noundef %15, ptr noundef %11) #7
  ret i32 0
}